target datalayout = "e-m:e-p270:32:32-p271:32:32-p272:64:64-i64:64-i128:128-f80:128-n8:16:32:64-S128"
target triple = "x86_64-pc-linux-gnu"

%struct.lua_State = type { %struct.GCRef, i8, i8, i8, i8, %struct.MRef, %struct.GCRef, ptr, ptr, %struct.MRef, %struct.MRef, %struct.GCRef, %struct.GCRef, ptr, i32 }
%struct.MRef = type { i64 }
%struct.GCRef = type { i64 }
%union.TValue = type { i64 }
%struct.GG_State = type { %struct.lua_State, %struct.global_State, %struct.jit_State, [64 x i16], [243 x ptr], [57 x i32] }
%struct.global_State = type { ptr, ptr, %struct.GCState, %struct.GCstr, i8, i8, i8, i8, %struct.StrInternState, i32, %struct.GCRef, %struct.SBuf, %union.TValue, %union.TValue, %struct.Node, %union.TValue, %struct.GCupval, i32, i32, ptr, ptr, ptr, i32, i32, %struct.GCRef, %struct.MRef, %struct.MRef, %struct.PRNGState, [39 x %struct.GCRef] }
%struct.GCState = type { i64, i64, i8, i8, i8, i8, i32, %struct.GCRef, %struct.MRef, %struct.GCRef, %struct.GCRef, %struct.GCRef, %struct.GCRef, i64, i64, i32, i32, %struct.MRef }
%struct.GCstr = type { %struct.GCRef, i8, i8, i8, i8, i32, i32, i32 }
%struct.StrInternState = type { ptr, i32, i32, i32, i8, i8, i8, i8, i64 }
%struct.SBuf = type { ptr, ptr, ptr, %struct.MRef }
%struct.Node = type { %union.TValue, %union.TValue, %struct.MRef }
%struct.GCupval = type { %struct.GCRef, i8, i8, i8, i8, %union.anon, %struct.MRef, i32 }
%union.anon = type { %struct.anon.1 }
%struct.anon.1 = type { %struct.GCRef, %struct.GCRef }
%struct.PRNGState = type { [4 x i64] }
%struct.jit_State = type { %struct.GCtrace, ptr, ptr, ptr, ptr, ptr, ptr, i32, i32, i32, i8, i8, %struct.IRType1, i8, %struct.FoldState, ptr, i32, i32, i32, i32, i32, i32, i32, [1 x i32], [5 x %union.TValue], [3 x %union.TValue], ptr, i32, i32, i32, i32, ptr, ptr, i32, i32, i8, ptr, i32, i32, i16, [101 x i16], [258 x i32], [15 x i32], [16 x ptr], [64 x %struct.HotPenalty], i32, [16 x %struct.BPropEntry], i32, %struct.ScEvEntry, ptr, i32, i32, i32, ptr, i32, i32, ptr, ptr, ptr, i64, i64, %union.TValue, ptr, i32, i32 }
%struct.GCtrace = type { %struct.GCRef, i8, i8, i16, i32, i32, %struct.GCRef, ptr, i32, i32, ptr, ptr, %struct.GCRef, %struct.MRef, i32, i32, ptr, i32, i16, i16, i16, i16, i16, i16, i16, i8, i8, i8, i8 }
%struct.IRType1 = type { i8 }
%struct.FoldState = type { %union.IRIns, [2 x %union.IRIns], [2 x %union.IRIns] }
%union.IRIns = type { %struct.GCRef }
%struct.HotPenalty = type { %struct.MRef, i16, i16 }
%struct.BPropEntry = type { i16, i16, i32 }
%struct.ScEvEntry = type { %struct.MRef, i16, i16, i16, i16, %struct.IRType1, i8 }

@.str.9 = private unnamed_addr constant [24 x i8] c"store to dead GC object\00", align 1

; Function Attrs: alwaysinline nounwind uwtable
define internal void @checklivetv(ptr noundef %0, ptr noundef %1, ptr noundef %2) #5 {
  %4 = alloca ptr, align 8
  %5 = alloca ptr, align 8
  %6 = alloca ptr, align 8
  store ptr %0, ptr %4, align 8, !tbaa !4
  store ptr %1, ptr %5, align 8, !tbaa !56
  store ptr %2, ptr %6, align 8, !tbaa !41
  ret void
}

; Function Attrs: alwaysinline nounwind uwtable
define internal void @setgcVraw(ptr noundef %0, ptr noundef %1, i32 noundef %2) #5 {
  %4 = alloca ptr, align 8
  %5 = alloca ptr, align 8
  %6 = alloca i32, align 4
  store ptr %0, ptr %4, align 8, !tbaa !56
  store ptr %1, ptr %5, align 8, !tbaa !57
  store i32 %2, ptr %6, align 4, !tbaa !35
  %7 = load ptr, ptr %5, align 8, !tbaa !57
  %8 = ptrtoint ptr %7 to i64
  %9 = load i32, ptr %6, align 4, !tbaa !35
  %10 = zext i32 %9 to i64
  %11 = shl i64 %10, 47
  %12 = or i64 %8, %11
  %13 = load ptr, ptr %4, align 8, !tbaa !56
  %14 = getelementptr inbounds nuw %struct.GCRef, ptr %13, i32 0, i32 0
  store i64 %12, ptr %14, align 8, !tbaa !37
  ret void
}

; Function Attrs: alwaysinline nounwind uwtable
define internal void @setgcV(ptr noundef %0, ptr noundef %1, ptr noundef %2, i32 noundef %3) #5 {
  %5 = alloca ptr, align 8
  %6 = alloca ptr, align 8
  %7 = alloca ptr, align 8
  %8 = alloca i32, align 4
  store ptr %0, ptr %5, align 8, !tbaa !4
  store ptr %1, ptr %6, align 8, !tbaa !56
  store ptr %2, ptr %7, align 8, !tbaa !57
  store i32 %3, ptr %8, align 4, !tbaa !35
  %9 = load ptr, ptr %6, align 8, !tbaa !56
  %10 = load ptr, ptr %7, align 8, !tbaa !57
  %11 = load i32, ptr %8, align 4, !tbaa !35
  call void @setgcVraw(ptr noundef %9, ptr noundef %10, i32 noundef %11)
  %12 = load ptr, ptr %5, align 8, !tbaa !4
  %13 = load ptr, ptr %6, align 8, !tbaa !56
  call void @checklivetv(ptr noundef %12, ptr noundef %13, ptr noundef @.str.9)
  ret void
}

; Function Attrs: alwaysinline nounwind uwtable
define internal void @setstrV(ptr noundef %0, ptr noundef %1, ptr noundef %2) #5 {
  %4 = alloca ptr, align 8
  %5 = alloca ptr, align 8
  %6 = alloca ptr, align 8
  store ptr %0, ptr %4, align 8, !tbaa !4
  store ptr %1, ptr %5, align 8, !tbaa !56
  store ptr %2, ptr %6, align 8, !tbaa !39
  %7 = load ptr, ptr %4, align 8, !tbaa !4
  %8 = load ptr, ptr %5, align 8, !tbaa !56
  %9 = load ptr, ptr %6, align 8, !tbaa !39
  call void @setgcV(ptr noundef %7, ptr noundef %8, ptr noundef %9, i32 noundef -5)
  ret void
}

; Function Attrs: alwaysinline nounwind uwtable
define internal void @setintV(ptr noundef %0, i32 noundef %1) #5 {
  %3 = alloca ptr, align 8
  %4 = alloca i32, align 4
  store ptr %0, ptr %3, align 8, !tbaa !56
  store i32 %1, ptr %4, align 4, !tbaa !35
  %5 = load i32, ptr %4, align 4, !tbaa !35
  %6 = sitofp i32 %5 to double
  %7 = load ptr, ptr %3, align 8, !tbaa !56
  store double %6, ptr %7, align 8, !tbaa !37
  ret void
}

; Function Attrs: alwaysinline nounwind uwtable
define internal void @setthreadV(ptr noundef %0, ptr noundef %1, ptr noundef %2) #5 {
  %4 = alloca ptr, align 8
  %5 = alloca ptr, align 8
  %6 = alloca ptr, align 8
  store ptr %0, ptr %4, align 8, !tbaa !4
  store ptr %1, ptr %5, align 8, !tbaa !56
  store ptr %2, ptr %6, align 8, !tbaa !4
  %7 = load ptr, ptr %4, align 8, !tbaa !4
  %8 = load ptr, ptr %5, align 8, !tbaa !56
  %9 = load ptr, ptr %6, align 8, !tbaa !4
  call void @setgcV(ptr noundef %7, ptr noundef %8, ptr noundef %9, i32 noundef -7)
  ret void
}

; Function Attrs: alwaysinline nounwind uwtable
define internal void @setfuncV(ptr noundef %0, ptr noundef %1, ptr noundef %2) #5 {
  %4 = alloca ptr, align 8
  %5 = alloca ptr, align 8
  %6 = alloca ptr, align 8
  store ptr %0, ptr %4, align 8, !tbaa !4
  store ptr %1, ptr %5, align 8, !tbaa !56
  store ptr %2, ptr %6, align 8, !tbaa !38
  %7 = load ptr, ptr %4, align 8, !tbaa !4
  %8 = load ptr, ptr %5, align 8, !tbaa !56
  %9 = load ptr, ptr %6, align 8, !tbaa !38
  call void @setgcV(ptr noundef %7, ptr noundef %8, ptr noundef %9, i32 noundef -9)
  ret void
}

; Function Attrs: nounwind uwtable
define internal void @jit_profile_callback(ptr noundef %0, ptr noundef %1, i32 noundef %2, i32 noundef %3) #0 {
  %5 = alloca ptr, align 8
  %6 = alloca ptr, align 8
  %7 = alloca i32, align 4
  %8 = alloca i32, align 4
  %9 = alloca %union.TValue, align 8
  %10 = alloca ptr, align 8
  %11 = alloca i8, align 1
  %12 = alloca i32, align 4
  store ptr %0, ptr %5, align 8, !tbaa !4
  store ptr %1, ptr %6, align 8, !tbaa !4
  store i32 %2, ptr %7, align 4, !tbaa !35
  store i32 %3, ptr %8, align 4, !tbaa !35
  call void @llvm.lifetime.start.p0(i64 8, ptr %9) #9
  call void @llvm.lifetime.start.p0(i64 8, ptr %10) #9
  store i64 -9223372036854775706, ptr %9, align 8, !tbaa !37
  %13 = load ptr, ptr %6, align 8, !tbaa !4
  %14 = load ptr, ptr %6, align 8, !tbaa !4
  %15 = getelementptr inbounds nuw %struct.lua_State, ptr %14, i32 0, i32 5
  %16 = getelementptr inbounds nuw %struct.MRef, ptr %15, i32 0, i32 0
  %17 = load i64, ptr %16, align 8, !tbaa !17
  %18 = inttoptr i64 %17 to ptr
  %19 = getelementptr inbounds nuw %struct.global_State, ptr %18, i32 0, i32 15
  %20 = getelementptr inbounds nuw %struct.GCRef, ptr %19, i32 0, i32 0
  %21 = load i64, ptr %20, align 8, !tbaa !37
  %22 = and i64 %21, 140737488355327
  %23 = inttoptr i64 %22 to ptr
  %24 = call ptr @lj_tab_get(ptr noundef %13, ptr noundef %23, ptr noundef %9)
  store ptr %24, ptr %10, align 8, !tbaa !56
  %25 = load ptr, ptr %10, align 8, !tbaa !56
  %26 = load i64, ptr %25, align 8, !tbaa !37
  %27 = ashr i64 %26, 47
  %28 = trunc i64 %27 to i32
  %29 = icmp eq i32 %28, -9
  br i1 %29, label %30, label %96

30:                                               ; preds = %4
  call void @llvm.lifetime.start.p0(i64 1, ptr %11) #9
  %31 = load i32, ptr %8, align 4, !tbaa !35
  %32 = trunc i32 %31 to i8
  store i8 %32, ptr %11, align 1, !tbaa !37
  call void @llvm.lifetime.start.p0(i64 4, ptr %12) #9
  %33 = load ptr, ptr %5, align 8, !tbaa !4
  %34 = load ptr, ptr %5, align 8, !tbaa !4
  %35 = getelementptr inbounds nuw %struct.lua_State, ptr %34, i32 0, i32 8
  %36 = load ptr, ptr %35, align 8, !tbaa !16
  %37 = getelementptr inbounds nuw %union.TValue, ptr %36, i32 1
  store ptr %37, ptr %35, align 8, !tbaa !16
  %38 = load ptr, ptr %10, align 8, !tbaa !56
  %39 = getelementptr inbounds nuw %struct.GCRef, ptr %38, i32 0, i32 0
  %40 = load i64, ptr %39, align 8, !tbaa !37
  %41 = and i64 %40, 140737488355327
  %42 = inttoptr i64 %41 to ptr
  call void @setfuncV(ptr noundef %33, ptr noundef %36, ptr noundef %42)
  %43 = load ptr, ptr %5, align 8, !tbaa !4
  %44 = load ptr, ptr %5, align 8, !tbaa !4
  %45 = getelementptr inbounds nuw %struct.lua_State, ptr %44, i32 0, i32 8
  %46 = load ptr, ptr %45, align 8, !tbaa !16
  %47 = getelementptr inbounds nuw %union.TValue, ptr %46, i32 1
  store ptr %47, ptr %45, align 8, !tbaa !16
  %48 = load ptr, ptr %6, align 8, !tbaa !4
  call void @setthreadV(ptr noundef %43, ptr noundef %46, ptr noundef %48)
  %49 = load ptr, ptr %5, align 8, !tbaa !4
  %50 = getelementptr inbounds nuw %struct.lua_State, ptr %49, i32 0, i32 8
  %51 = load ptr, ptr %50, align 8, !tbaa !16
  %52 = getelementptr inbounds nuw %union.TValue, ptr %51, i32 1
  store ptr %52, ptr %50, align 8, !tbaa !16
  %53 = load i32, ptr %7, align 4, !tbaa !35
  call void @setintV(ptr noundef %51, i32 noundef %53)
  %54 = load ptr, ptr %5, align 8, !tbaa !4
  %55 = load ptr, ptr %5, align 8, !tbaa !4
  %56 = getelementptr inbounds nuw %struct.lua_State, ptr %55, i32 0, i32 8
  %57 = load ptr, ptr %56, align 8, !tbaa !16
  %58 = getelementptr inbounds nuw %union.TValue, ptr %57, i32 1
  store ptr %58, ptr %56, align 8, !tbaa !16
  %59 = load ptr, ptr %5, align 8, !tbaa !4
  %60 = call ptr @lj_str_new(ptr noundef %59, ptr noundef %11, i64 noundef 1)
  call void @setstrV(ptr noundef %54, ptr noundef %57, ptr noundef %60)
  %61 = load ptr, ptr %5, align 8, !tbaa !4
  %62 = call i32 @lua_pcall(ptr noundef %61, i32 noundef 3, i32 noundef 0, i32 noundef 0)
  store i32 %62, ptr %12, align 4, !tbaa !35
  %63 = load i32, ptr %12, align 4, !tbaa !35
  %64 = icmp ne i32 %63, 0
  br i1 %64, label %65, label %85

65:                                               ; preds = %30
  %66 = load ptr, ptr %5, align 8, !tbaa !4
  %67 = getelementptr inbounds nuw %struct.lua_State, ptr %66, i32 0, i32 5
  %68 = getelementptr inbounds nuw %struct.MRef, ptr %67, i32 0, i32 0
  %69 = load i64, ptr %68, align 8, !tbaa !17
  %70 = inttoptr i64 %69 to ptr
  %71 = getelementptr inbounds nuw %struct.global_State, ptr %70, i32 0, i32 21
  %72 = load ptr, ptr %71, align 8, !tbaa !67
  %73 = icmp ne ptr %72, null
  br i1 %73, label %74, label %84

74:                                               ; preds = %65
  %75 = load ptr, ptr %5, align 8, !tbaa !4
  %76 = getelementptr inbounds nuw %struct.lua_State, ptr %75, i32 0, i32 5
  %77 = getelementptr inbounds nuw %struct.MRef, ptr %76, i32 0, i32 0
  %78 = load i64, ptr %77, align 8, !tbaa !17
  %79 = inttoptr i64 %78 to ptr
  %80 = getelementptr inbounds nuw %struct.global_State, ptr %79, i32 0, i32 21
  %81 = load ptr, ptr %80, align 8, !tbaa !67
  %82 = load ptr, ptr %5, align 8, !tbaa !4
  %83 = call i32 %81(ptr noundef %82)
  br label %84

84:                                               ; preds = %74, %65
  call void @exit(i32 noundef 1) #11
  unreachable

85:                                               ; preds = %30
  %86 = load ptr, ptr %5, align 8, !tbaa !4
  %87 = getelementptr inbounds nuw %struct.lua_State, ptr %86, i32 0, i32 5
  %88 = getelementptr inbounds nuw %struct.MRef, ptr %87, i32 0, i32 0
  %89 = load i64, ptr %88, align 8, !tbaa !17
  %90 = inttoptr i64 %89 to ptr
  %91 = getelementptr inbounds i8, ptr %90, i64 -96
  %92 = getelementptr inbounds nuw %struct.GG_State, ptr %91, i32 0, i32 2
  %93 = getelementptr inbounds nuw %struct.jit_State, ptr %92, i32 0, i32 17
  %94 = load i32, ptr %93, align 4, !tbaa !68
  %95 = and i32 %94, -17
  store i32 %95, ptr %93, align 4, !tbaa !68
  call void @llvm.lifetime.end.p0(i64 4, ptr %12) #9
  call void @llvm.lifetime.end.p0(i64 1, ptr %11) #9
  br label %96

96:                                               ; preds = %85, %4
  call void @llvm.lifetime.end.p0(i64 8, ptr %10) #9
  call void @llvm.lifetime.end.p0(i64 8, ptr %9) #9
  ret void
}