; Function Attrs: nounwind uwtable
define internal void @jit_profile_callback(ptr noundef %0, ptr noundef %1, i32 noundef %2, i32 noundef %3) #0 {
  %5 = alloca %union.TValue, align 8
  %6 = alloca i8, align 1
  call void @llvm.lifetime.start.p0(i64 8, ptr nonnull %5) #8
  store i64 -9223372036854775706, ptr %5, align 8, !tbaa !34
  %7 = getelementptr inbounds nuw i8, ptr %1, i64 16
  %8 = load i64, ptr %7, align 8, !tbaa !4
  %9 = inttoptr i64 %8 to ptr
  %10 = getelementptr inbounds nuw i8, ptr %9, i64 272
  %11 = load i64, ptr %10, align 8, !tbaa !34
  %12 = and i64 %11, 140737488355327
  %13 = inttoptr i64 %12 to ptr
  %14 = call ptr @lj_tab_get(ptr noundef %1, ptr noundef %13, ptr noundef nonnull %5) #8
  %15 = load i64, ptr %14, align 8, !tbaa !34
  %.mask = and i64 %15, -140737488355328
  %16 = icmp eq i64 %.mask, -1266637395197952
  br i1 %16, label %17, label %51

17:                                               ; preds = %4
  call void @llvm.lifetime.start.p0(i64 1, ptr nonnull %6) #8
  %18 = trunc i32 %3 to i8
  store i8 %18, ptr %6, align 1, !tbaa !34
  %19 = getelementptr inbounds nuw i8, ptr %0, i64 40
  %20 = load ptr, ptr %19, align 8, !tbaa !32
  %21 = getelementptr inbounds nuw i8, ptr %20, i64 8
  store ptr %21, ptr %19, align 8, !tbaa !32
  %22 = load i64, ptr %14, align 8, !tbaa !34
  %23 = and i64 %22, 140737488355327
  %24 = or disjoint i64 %23, -1266637395197952
  store i64 %24, ptr %20, align 8, !tbaa !34
  %25 = load ptr, ptr %19, align 8, !tbaa !32
  %26 = getelementptr inbounds nuw i8, ptr %25, i64 8
  store ptr %26, ptr %19, align 8, !tbaa !32
  %27 = ptrtoint ptr %1 to i64
  %28 = or i64 %27, -985162418487296
  store i64 %28, ptr %25, align 8, !tbaa !34
  %29 = load ptr, ptr %19, align 8, !tbaa !32
  %30 = getelementptr inbounds nuw i8, ptr %29, i64 8
  store ptr %30, ptr %19, align 8, !tbaa !32
  %31 = sitofp i32 %2 to double
  store double %31, ptr %29, align 8, !tbaa !34
  %32 = load ptr, ptr %19, align 8, !tbaa !32
  %33 = getelementptr inbounds nuw i8, ptr %32, i64 8
  store ptr %33, ptr %19, align 8, !tbaa !32
  %34 = call ptr @lj_str_new(ptr noundef %0, ptr noundef nonnull %6, i64 noundef 1) #8
  %35 = ptrtoint ptr %34 to i64
  %36 = or i64 %35, -703687441776640
  store i64 %36, ptr %32, align 8, !tbaa !34
  %37 = call i32 @lua_pcall(ptr noundef %0, i32 noundef 3, i32 noundef 0, i32 noundef 0) #8
  %.not = icmp eq i32 %37, 0
  %38 = getelementptr inbounds nuw i8, ptr %0, i64 16
  %39 = load i64, ptr %38, align 8, !tbaa !4
  %40 = inttoptr i64 %39 to ptr
  br i1 %.not, label %47, label %41

41:                                               ; preds = %17
  %42 = getelementptr inbounds nuw i8, ptr %40, i64 352
  %43 = load ptr, ptr %42, align 8, !tbaa !54
  %.not20 = icmp eq ptr %43, null
  br i1 %.not20, label %46, label %44

44:                                               ; preds = %41
  %45 = call i32 %43(ptr noundef nonnull %0) #8
  br label %46

46:                                               ; preds = %44, %41
  call void @exit(i32 noundef 1) #10
  unreachable

47:                                               ; preds = %17
  %48 = getelementptr inbounds nuw i8, ptr %40, i64 972
  %49 = load i32, ptr %48, align 4, !tbaa !55
  %50 = and i32 %49, -17
  store i32 %50, ptr %48, align 4, !tbaa !55
  call void @llvm.lifetime.end.p0(i64 1, ptr nonnull %6) #8
  br label %51

51:                                               ; preds = %47, %4
  call void @llvm.lifetime.end.p0(i64 8, ptr nonnull %5) #8
  ret void
}